; Function Attrs: nofree nounwind uwtable
define noalias noundef ptr @Saig_TsiComputeTransient(ptr noundef readonly captures(none) %0, i32 noundef %1) local_unnamed_addr #7 {
  %3 = load ptr, ptr %0, align 8, !tbaa !3
  %4 = getelementptr inbounds nuw i8, ptr %3, i64 104
  %5 = load i32, ptr %4, align 8, !tbaa !14
  %6 = tail call noalias dereferenceable_or_null(16) ptr @malloc(i64 noundef 16) #20
  %7 = add i32 %1, -1
  %or.cond.i.i = icmp ult i32 %7, 15
  %spec.store.select.i.i = select i1 %or.cond.i.i, i32 16, i32 %1
  %8 = getelementptr i8, ptr %6, i64 4
  store i32 %spec.store.select.i.i, ptr %6, align 8, !tbaa !42
  %.not.i.i = icmp eq i32 %spec.store.select.i.i, 0
  br i1 %.not.i.i, label %Vec_IntAlloc.exit.thread.i, label %Vec_IntAlloc.exit.i

Vec_IntAlloc.exit.thread.i:                       ; preds = %2
  %9 = getelementptr inbounds nuw i8, ptr %6, i64 8
  store ptr null, ptr %9, align 8, !tbaa !37
  store i32 %1, ptr %8, align 4, !tbaa !41
  br label %Vec_IntStart.exit

Vec_IntAlloc.exit.i:                              ; preds = %2
  %10 = sext i32 %spec.store.select.i.i to i64
  %11 = shl nsw i64 %10, 2
  %12 = tail call noalias ptr @malloc(i64 noundef %11) #20
  %13 = getelementptr inbounds nuw i8, ptr %6, i64 8
  store ptr %12, ptr %13, align 8, !tbaa !37
  store i32 %1, ptr %8, align 4, !tbaa !41
  %.not.i = icmp eq ptr %12, null
  br i1 %.not.i, label %Vec_IntStart.exit, label %14

14:                                               ; preds = %Vec_IntAlloc.exit.i
  %15 = sext i32 %1 to i64
  %16 = shl nsw i64 %15, 2
  tail call void @llvm.memset.p0.i64(ptr nonnull align 4 %12, i8 0, i64 %16, i1 false)
  br label %Vec_IntStart.exit

Vec_IntStart.exit:                                ; preds = %Vec_IntAlloc.exit.thread.i, %Vec_IntAlloc.exit.i, %14
  %.val44 = phi ptr [ null, %Vec_IntAlloc.exit.thread.i ], [ null, %Vec_IntAlloc.exit.i ], [ %12, %14 ]
  %17 = icmp sgt i32 %5, 0
  br i1 %17, label %.preheader46.lr.ph, label %.preheader

.preheader46.lr.ph:                               ; preds = %Vec_IntStart.exit
  %18 = getelementptr inbounds nuw i8, ptr %0, i64 16
  %19 = load ptr, ptr %18, align 8, !tbaa !29
  %20 = getelementptr i8, ptr %19, i64 4
  %21 = getelementptr i8, ptr %19, i64 8
  br label %.preheader46

.preheader46:                                     ; preds = %.preheader46.lr.ph, %46
  %.055 = phi i32 [ -1, %.preheader46.lr.ph ], [ %.1.lcssa, %46 ]
  %.03254 = phi i32 [ 0, %.preheader46.lr.ph ], [ %47, %46 ]
  %.03453 = phi i32 [ -1, %.preheader46.lr.ph ], [ %.135.lcssa, %46 ]
  %.03652 = phi i32 [ -1, %.preheader46.lr.ph ], [ %.137.lcssa, %46 ]
  %.val = load i32, ptr %20, align 4, !tbaa !25
  %22 = icmp sgt i32 %.val, 0
  br i1 %22, label %.lr.ph, label %.critedge

.lr.ph:                                           ; preds = %.preheader46
  %.val42 = load ptr, ptr %21, align 8, !tbaa !28
  %23 = shl nuw nsw i32 %.03254, 1
  %24 = lshr i32 %.03254, 4
  %25 = zext nneg i32 %24 to i64
  %26 = and i32 %23, 30
  %27 = or disjoint i32 %26, 1
  %wide.trip.count = zext nneg i32 %.val to i64
  br label %28

.preheader:                                       ; preds = %46, %Vec_IntStart.exit
  ret ptr %6

28:                                               ; preds = %.lr.ph, %28
  %indvars.iv = phi i64 [ 0, %.lr.ph ], [ %indvars.iv.next, %28 ]
  %.13548 = phi i32 [ %.03453, %.lr.ph ], [ %spec.select41, %28 ]
  %.13747 = phi i32 [ %.03652, %.lr.ph ], [ %38, %28 ]
  %29 = getelementptr inbounds nuw ptr, ptr %.val42, i64 %indvars.iv
  %30 = load ptr, ptr %29, align 8, !tbaa !43
  %31 = getelementptr inbounds nuw i32, ptr %30, i64 %25
  %32 = load i32, ptr %31, align 4, !tbaa !39
  %33 = lshr i32 %32, %27
  %34 = shl nuw i32 %33, 1
  %35 = and i32 %34, 2
  %36 = lshr i32 %32, %26
  %37 = and i32 %36, 1
  %38 = or disjoint i32 %35, %37
  %.not40 = icmp eq i32 %.13747, %38
  %39 = trunc nuw nsw i64 %indvars.iv to i32
  %spec.select41 = select i1 %.not40, i32 %.13548, i32 %39
  %indvars.iv.next = add nuw nsw i64 %indvars.iv, 1
  %exitcond.not = icmp eq i64 %indvars.iv.next, %wide.trip.count
  br i1 %exitcond.not, label %.critedge, label %28, !llvm.loop !46

.critedge:                                        ; preds = %28, %.preheader46
  %.137.lcssa = phi i32 [ %.03652, %.preheader46 ], [ %38, %28 ]
  %.135.lcssa = phi i32 [ %.03453, %.preheader46 ], [ %spec.select41, %28 ]
  %.1.lcssa = phi i32 [ %.055, %.preheader46 ], [ %38, %28 ]
  %40 = icmp ne i32 %.1.lcssa, 3
  %.not = icmp slt i32 %.135.lcssa, %1
  %or.cond = select i1 %40, i1 %.not, i1 false
  br i1 %or.cond, label %41, label %46

41:                                               ; preds = %.critedge
  %42 = sext i32 %.135.lcssa to i64
  %43 = getelementptr inbounds i32, ptr %.val44, i64 %42
  %44 = load i32, ptr %43, align 4, !tbaa !39
  %45 = add nsw i32 %44, 1
  store i32 %45, ptr %43, align 4, !tbaa !39
  br label %46

46:                                               ; preds = %.critedge, %41
  %47 = add nuw nsw i32 %.03254, 1
  %exitcond57.not = icmp eq i32 %47, %5
  br i1 %exitcond57.not, label %.preheader, label %.preheader46, !llvm.loop !47
}